#include <math.h>
#include <stdio.h>
#include <stdlib.h>
#include <string.h>

main()
{
int n;
scanf("%d",&n);
int i,k;
char a[100][100];
for(i=0;i<n;i++)
scanf("%s",a[i]);
int c[100];
for(i=0;i<n;i++)
c[i]=strlen(a[i]);
for(i=0;i<n;i++)
{
if(a[i][c[i]-1]=='g')
{a[i][c[i]-3]='\0';
a[i][c[i]-2]='\0';
a[i][c[i]-1]='\0';}
else
{
a[i][c[i]-2]='\0';
a[i][c[i]-1]='\0';
}
}
for(i=0;i<n;i++)
{puts(a[i]);
printf("\n");
}
}
