; ModuleID = 'source-C-CXX/56/11.c'
source_filename = "source-C-CXX/56/11.c"
target datalayout = "e-m:e-p270:32:32-p271:32:32-p272:64:64-i64:64-f80:128-n8:16:32:64-S128"
target triple = "x86_64-pc-linux-gnu"

@.str = private unnamed_addr constant [3 x i8] c"%d\00", align 1
@.str.1 = private unnamed_addr constant [3 x i8] c"%s\00", align 1

; Function Attrs: nofree nounwind sspstrong uwtable
define dso_local i32 @main() local_unnamed_addr #0 {
  %1 = alloca i32, align 4
  %2 = alloca [100 x [100 x i8]], align 16
  %3 = alloca [100 x i32], align 16
  %4 = bitcast i32* %1 to i8*
  call void @llvm.lifetime.start.p0i8(i64 4, i8* nonnull %4) #5
  %5 = call i32 (i8*, ...) @__isoc99_scanf(i8* getelementptr inbounds ([3 x i8], [3 x i8]* @.str, i64 0, i64 0), i32* nonnull %1)
  %6 = getelementptr inbounds [100 x [100 x i8]], [100 x [100 x i8]]* %2, i64 0, i64 0, i64 0
  call void @llvm.lifetime.start.p0i8(i64 10000, i8* nonnull %6) #5
  %7 = load i32, i32* %1, align 4, !tbaa !5
  %8 = icmp sgt i32 %7, 0
  br i1 %8, label %11, label %9

9:                                                ; preds = %0
  %10 = bitcast [100 x i32]* %3 to i8*
  call void @llvm.lifetime.start.p0i8(i64 400, i8* nonnull %10) #5
  br label %63

11:                                               ; preds = %0, %11
  %12 = phi i64 [ %15, %11 ], [ 0, %0 ]
  %13 = getelementptr inbounds [100 x [100 x i8]], [100 x [100 x i8]]* %2, i64 0, i64 %12, i64 0
  %14 = call i32 (i8*, ...) @__isoc99_scanf(i8* getelementptr inbounds ([3 x i8], [3 x i8]* @.str.1, i64 0, i64 0), i8* nonnull %13)
  %15 = add nuw nsw i64 %12, 1
  %16 = load i32, i32* %1, align 4, !tbaa !5
  %17 = sext i32 %16 to i64
  %18 = icmp slt i64 %15, %17
  br i1 %18, label %11, label %19, !llvm.loop !9

19:                                               ; preds = %11
  %20 = bitcast [100 x i32]* %3 to i8*
  call void @llvm.lifetime.start.p0i8(i64 400, i8* nonnull %20) #5
  %21 = icmp sgt i32 %16, 0
  br i1 %21, label %22, label %63

22:                                               ; preds = %19
  %23 = zext i32 %16 to i64
  br label %27

24:                                               ; preds = %27
  br i1 %21, label %25, label %63

25:                                               ; preds = %24
  %26 = zext i32 %16 to i64
  br label %35

27:                                               ; preds = %22, %27
  %28 = phi i64 [ 0, %22 ], [ %33, %27 ]
  %29 = getelementptr inbounds [100 x [100 x i8]], [100 x [100 x i8]]* %2, i64 0, i64 %28, i64 0
  %30 = call i64 @strlen(i8* noundef nonnull %29) #6
  %31 = trunc i64 %30 to i32
  %32 = getelementptr inbounds [100 x i32], [100 x i32]* %3, i64 0, i64 %28
  store i32 %31, i32* %32, align 4, !tbaa !5
  %33 = add nuw nsw i64 %28, 1
  %34 = icmp eq i64 %33, %23
  br i1 %34, label %24, label %27, !llvm.loop !11

35:                                               ; preds = %25, %48
  %36 = phi i64 [ 0, %25 ], [ %52, %48 ]
  %37 = getelementptr inbounds [100 x i32], [100 x i32]* %3, i64 0, i64 %36
  %38 = load i32, i32* %37, align 4, !tbaa !5
  %39 = add nsw i32 %38, -1
  %40 = sext i32 %39 to i64
  %41 = getelementptr inbounds [100 x [100 x i8]], [100 x [100 x i8]]* %2, i64 0, i64 %36, i64 %40
  %42 = load i8, i8* %41, align 1, !tbaa !12
  %43 = icmp eq i8 %42, 103
  br i1 %43, label %44, label %48

44:                                               ; preds = %35
  %45 = add nsw i32 %38, -3
  %46 = sext i32 %45 to i64
  %47 = getelementptr inbounds [100 x [100 x i8]], [100 x [100 x i8]]* %2, i64 0, i64 %36, i64 %46
  store i8 0, i8* %47, align 1, !tbaa !12
  br label %48

48:                                               ; preds = %35, %44
  %49 = add nsw i32 %38, -2
  %50 = sext i32 %49 to i64
  %51 = getelementptr inbounds [100 x [100 x i8]], [100 x [100 x i8]]* %2, i64 0, i64 %36, i64 %50
  store i8 0, i8* %51, align 1, !tbaa !12
  store i8 0, i8* %41, align 1, !tbaa !12
  %52 = add nuw nsw i64 %36, 1
  %53 = icmp eq i64 %52, %26
  br i1 %53, label %54, label %35, !llvm.loop !13

54:                                               ; preds = %48, %54
  %55 = phi i64 [ %59, %54 ], [ 0, %48 ]
  %56 = getelementptr inbounds [100 x [100 x i8]], [100 x [100 x i8]]* %2, i64 0, i64 %55, i64 0
  %57 = call i32 @puts(i8* nonnull %56)
  %58 = call i32 @putchar(i32 10)
  %59 = add nuw nsw i64 %55, 1
  %60 = load i32, i32* %1, align 4, !tbaa !5
  %61 = sext i32 %60 to i64
  %62 = icmp slt i64 %59, %61
  br i1 %62, label %54, label %63, !llvm.loop !14

63:                                               ; preds = %54, %19, %9, %24
  %64 = bitcast [100 x i32]* %3 to i8*
  call void @llvm.lifetime.end.p0i8(i64 400, i8* nonnull %64) #5
  call void @llvm.lifetime.end.p0i8(i64 10000, i8* nonnull %6) #5
  call void @llvm.lifetime.end.p0i8(i64 4, i8* nonnull %4) #5
  ret i32 0
}

; Function Attrs: argmemonly mustprogress nofree nosync nounwind willreturn
declare void @llvm.lifetime.start.p0i8(i64 immarg, i8* nocapture) #1

; Function Attrs: nofree nounwind
declare noundef i32 @__isoc99_scanf(i8* nocapture noundef readonly, ...) local_unnamed_addr #2

; Function Attrs: argmemonly mustprogress nofree nounwind readonly willreturn
declare i64 @strlen(i8* nocapture) local_unnamed_addr #3

; Function Attrs: nofree nounwind
declare noundef i32 @puts(i8* nocapture noundef readonly) local_unnamed_addr #2

; Function Attrs: argmemonly mustprogress nofree nosync nounwind willreturn
declare void @llvm.lifetime.end.p0i8(i64 immarg, i8* nocapture) #1

; Function Attrs: nofree nounwind
declare noundef i32 @putchar(i32 noundef) local_unnamed_addr #4


!llvm.module.flags = !{!0, !1, !2, !3}
!llvm.ident = !{!4}

!0 = !{i32 1, !"wchar_size", i32 4}
!1 = !{i32 7, !"PIC Level", i32 2}
!2 = !{i32 7, !"PIE Level", i32 2}
!3 = !{i32 7, !"uwtable", i32 1}
!4 = !{!"clang version 13.0.0"}
!5 = !{!6, !6, i64 0}
!6 = !{!"int", !7, i64 0}
!7 = !{!"omnipotent char", !8, i64 0}
!8 = !{!"Simple C/C++ TBAA"}
!9 = distinct !{!9, !10}
!10 = !{!"llvm.loop.mustprogress"}
!11 = distinct !{!11, !10}
!12 = !{!7, !7, i64 0}
!13 = distinct !{!13, !10}
!14 = distinct !{!14, !10}
